; Function Attrs: mustprogress uwtable
define void @_ZN6casadi10PolynomialC2Eddd(ptr noundef nonnull align 8 dereferenceable(24) %0, double noundef %1, double noundef %2, double noundef %3) unnamed_addr #3 align 2 personality ptr @__gxx_personality_v0 {
  tail call void @llvm.memset.p0.i64(ptr noundef nonnull align 8 dereferenceable(24) %0, i8 0, i64 24, i1 false)
  invoke void @_ZNSt6vectorIdSaIdEE17_M_default_appendEm(ptr noundef nonnull align 8 dereferenceable(24) %0, i64 noundef 3)
          to label %_ZNSt6vectorIdSaIdEE6resizeEm.exit unwind label %9

_ZNSt6vectorIdSaIdEE6resizeEm.exit:               ; preds = %4
  %.pre = load ptr, ptr %0, align 8
  store double %1, ptr %.pre, align 8
  %5 = load ptr, ptr %0, align 8
  %6 = getelementptr inbounds i8, ptr %5, i64 8
  store double %2, ptr %6, align 8
  %7 = load ptr, ptr %0, align 8
  %8 = getelementptr inbounds i8, ptr %7, i64 16
  store double %3, ptr %8, align 8
  ret void

9:                                                ; preds = %4
  %10 = landingpad { ptr, i32 }
          cleanup
  %11 = load ptr, ptr %0, align 8
  %.not.i.i.i = icmp eq ptr %11, null
  br i1 %.not.i.i.i, label %_ZNSt6vectorIdSaIdEED2Ev.exit, label %12

12:                                               ; preds = %9
  tail call void @_ZdlPv(ptr noundef nonnull %11) #20
  br label %_ZNSt6vectorIdSaIdEED2Ev.exit

_ZNSt6vectorIdSaIdEED2Ev.exit:                    ; preds = %9, %12
  resume { ptr, i32 } %10
}